target datalayout = "e-m:e-p270:32:32-p271:32:32-p272:64:64-i64:64-i128:128-f80:128-n8:16:32:64-S128"
target triple = "x86_64-pc-linux-gnu"

%struct._zend_phpdbg_globals = type { [11 x %struct._zend_array], %struct._zend_array, %struct._zend_array, ptr, ptr, %struct.phpdbg_frame_t, i32, ptr, %struct.phpdbg_lexer_data, ptr, %struct.sigaction, i32, i64, %struct.phpdbg_btree, %struct.phpdbg_btree, %struct._zend_array, %struct._zend_array, %struct._zend_array, %struct._zend_array, ptr, ptr, i8, ptr, ptr, ptr, i64, ptr, %struct._zval_struct, i32, i32, i8, i8, ptr, ptr, ptr, %struct._zend_array, ptr, ptr, ptr, [3 x %struct.anon.8], ptr, %struct.anon.9, i64, [2 x ptr], [3 x ptr], ptr, i8, ptr, ptr, [500 x i8], i32, %struct.phpdbg_signal_safe_mem, ptr, i64, ptr, i64 }
%struct.phpdbg_frame_t = type { i32, ptr, ptr }
%struct.phpdbg_lexer_data = type { i32, ptr, ptr, ptr, ptr, i32 }
%struct.sigaction = type { %union.anon.7, %struct.__sigset_t, i32, ptr }
%union.anon.7 = type { ptr }
%struct.__sigset_t = type { [16 x i64] }
%struct.phpdbg_btree = type { i64, i64, i8, ptr }
%struct._zval_struct = type { %union._zend_value, %union.anon, %union.anon.2 }
%union._zend_value = type { i64 }
%union.anon = type { i32 }
%union.anon.2 = type { i32 }
%struct._zend_array = type { %struct._zend_refcounted_h, %union.anon.4, i32, %union.anon.6, i32, i32, i32, i32, i64, ptr }
%struct._zend_refcounted_h = type { i32, %union.anon.3 }
%union.anon.3 = type { i32 }
%union.anon.4 = type { i32 }
%union.anon.6 = type { ptr }
%struct.anon.8 = type { i32 }
%struct.anon.9 = type { i8, i32, i32, ptr, i32 }
%struct.phpdbg_signal_safe_mem = type { ptr, i8, ptr, ptr }
%struct._phpdbg_param = type { i32, i64, i64, %struct.anon.30, %struct.anon.31, ptr, i64, ptr, ptr }
%struct.anon.30 = type { ptr, i64 }
%struct.anon.31 = type { ptr, ptr }

@phpdbg_globals = external global %struct._zend_phpdbg_globals, align 8
@.str.34 = private unnamed_addr constant [44 x i8] c"Unsupported parameter type (%s) for command\00", align 1

; Function Attrs: nounwind uwtable
define hidden i32 @phpdbg_do_watch_array(ptr noundef %0) #0 {
  %2 = alloca i32, align 4
  %3 = alloca ptr, align 8
  store ptr %0, ptr %3, align 8
  %4 = call i32 @phpdbg_rebuild_symtable()
  %5 = icmp eq i32 %4, -1
  br i1 %5, label %6, label %7

6:                                                ; preds = %1
  store i32 0, ptr %2, align 4
  br label %25

7:                                                ; preds = %1
  %8 = load ptr, ptr %3, align 8
  %9 = getelementptr inbounds %struct._phpdbg_param, ptr %8, i32 0, i32 0
  %10 = load i32, ptr %9, align 8
  switch i32 %10, label %19 [
    i32 5, label %11
  ]

11:                                               ; preds = %7
  %12 = load ptr, ptr %3, align 8
  %13 = getelementptr inbounds %struct._phpdbg_param, ptr %12, i32 0, i32 5
  %14 = load ptr, ptr %13, align 8
  %15 = load ptr, ptr %3, align 8
  %16 = getelementptr inbounds %struct._phpdbg_param, ptr %15, i32 0, i32 6
  %17 = load i64, ptr %16, align 8
  %18 = call i32 @phpdbg_watchpoint_parse_symtables(ptr noundef %14, i64 noundef %17, ptr noundef @phpdbg_create_array_watchpoint)
  br label %24

19:                                               ; preds = %7
  %20 = load i32, ptr getelementptr inbounds (%struct._zend_phpdbg_globals, ptr @phpdbg_globals, i32 0, i32 39, i64 1), align 4
  %21 = load ptr, ptr %3, align 8
  %22 = call ptr @phpdbg_get_param_type(ptr noundef %21)
  %23 = call i32 (i32, i32, ptr, ...) @phpdbg_print(i32 noundef 1, i32 noundef %20, ptr noundef @.str.34, ptr noundef %22)
  br label %24

24:                                               ; preds = %19, %11
  store i32 0, ptr %2, align 4
  br label %25

25:                                               ; preds = %24, %6
  %26 = load i32, ptr %2, align 4
  ret i32 %26
}