; Function Attrs: nounwind uwtable
define hidden noundef i32 @phpdbg_do_watch_array(ptr noundef %0) #0 {
  %2 = tail call i32 @phpdbg_rebuild_symtable() #17
  %3 = icmp eq i32 %2, -1
  br i1 %3, label %16, label %4

4:                                                ; preds = %1
  %5 = load i32, ptr %0, align 8
  %cond = icmp eq i32 %5, 5
  br i1 %cond, label %6, label %12

6:                                                ; preds = %4
  %7 = getelementptr inbounds i8, ptr %0, i64 56
  %8 = load ptr, ptr %7, align 8
  %9 = getelementptr inbounds i8, ptr %0, i64 64
  %10 = load i64, ptr %9, align 8
  %11 = tail call fastcc i32 @phpdbg_watchpoint_parse_symtables(ptr noundef %8, i64 noundef %10, ptr noundef nonnull @phpdbg_create_array_watchpoint)
  br label %16

12:                                               ; preds = %4
  %13 = load i32, ptr getelementptr inbounds (%struct._zend_phpdbg_globals, ptr @phpdbg_globals, i64 0, i32 39, i64 1), align 4
  %14 = tail call ptr @phpdbg_get_param_type(ptr noundef nonnull %0) #17
  %15 = tail call i32 (i32, i32, ptr, ...) @phpdbg_print(i32 noundef 1, i32 noundef %13, ptr noundef nonnull @.str.34, ptr noundef %14) #17
  br label %16

16:                                               ; preds = %6, %12, %1
  ret i32 0
}